target datalayout = "e-m:e-p270:32:32-p271:32:32-p272:64:64-i64:64-i128:128-f80:128-n8:16:32:64-S128"
target triple = "x86_64-pc-linux-gnu"

%"struct.Luau::CodeGen::A64::RegisterA64" = type { i8 }
%"class.Luau::CodeGen::A64::AssemblyBuilderA64" = type { %"class.std::vector", %"class.std::vector.0", %"class.std::__cxx11::basic_string", i8, i32, i32, %"class.std::vector.8", %"class.std::vector.0", i8, i8, i64, ptr, ptr }
%"class.std::vector" = type { %"struct.std::_Vector_base" }
%"struct.std::_Vector_base" = type { %"struct.std::_Vector_base<unsigned char, std::allocator<unsigned char>>::_Vector_impl" }
%"struct.std::_Vector_base<unsigned char, std::allocator<unsigned char>>::_Vector_impl" = type { %"struct.std::_Vector_base<unsigned char, std::allocator<unsigned char>>::_Vector_impl_data" }
%"struct.std::_Vector_base<unsigned char, std::allocator<unsigned char>>::_Vector_impl_data" = type { ptr, ptr, ptr }
%"class.std::__cxx11::basic_string" = type { %"struct.std::__cxx11::basic_string<char>::_Alloc_hider", i64, %union.anon }
%"struct.std::__cxx11::basic_string<char>::_Alloc_hider" = type { ptr }
%union.anon = type { i64, [8 x i8] }
%"class.std::vector.8" = type { %"struct.std::_Vector_base.9" }
%"struct.std::_Vector_base.9" = type { %"struct.std::_Vector_base<Luau::CodeGen::A64::AssemblyBuilderA64::Patch, std::allocator<Luau::CodeGen::A64::AssemblyBuilderA64::Patch>>::_Vector_impl" }
%"struct.std::_Vector_base<Luau::CodeGen::A64::AssemblyBuilderA64::Patch, std::allocator<Luau::CodeGen::A64::AssemblyBuilderA64::Patch>>::_Vector_impl" = type { %"struct.std::_Vector_base<Luau::CodeGen::A64::AssemblyBuilderA64::Patch, std::allocator<Luau::CodeGen::A64::AssemblyBuilderA64::Patch>>::_Vector_impl_data" }
%"struct.std::_Vector_base<Luau::CodeGen::A64::AssemblyBuilderA64::Patch, std::allocator<Luau::CodeGen::A64::AssemblyBuilderA64::Patch>>::_Vector_impl_data" = type { ptr, ptr, ptr }
%"class.std::vector.0" = type { %"struct.std::_Vector_base.1" }
%"struct.std::_Vector_base.1" = type { %"struct.std::_Vector_base<unsigned int, std::allocator<unsigned int>>::_Vector_impl" }
%"struct.std::_Vector_base<unsigned int, std::allocator<unsigned int>>::_Vector_impl" = type { %"struct.std::_Vector_base<unsigned int, std::allocator<unsigned int>>::_Vector_impl_data" }
%"struct.std::_Vector_base<unsigned int, std::allocator<unsigned int>>::_Vector_impl_data" = type { ptr, ptr, ptr }

@_ZN4Luau7CodeGen3A64L16codeForConditionE = internal constant [15 x i8] c"\00\01\02\03\04\05\06\07\08\09\0A\0B\0C\0D\0E", align 1
@.str.76 = private unnamed_addr constant [6 x i8] c"fcsel\00", align 1

; Function Attrs: mustprogress uwtable
define dso_local void @_ZN4Luau7CodeGen3A6418AssemblyBuilderA646commitEv(ptr noundef nonnull align 8 dereferenceable(176) %0) #0 align 2 {
  %2 = alloca ptr, align 8
  store ptr %0, ptr %2, align 8, !tbaa !4
  %3 = load ptr, ptr %2, align 8
  %4 = getelementptr inbounds nuw %"class.Luau::CodeGen::A64::AssemblyBuilderA64", ptr %3, i32 0, i32 12
  %5 = load ptr, ptr %4, align 8, !tbaa !41
  %6 = getelementptr inbounds nuw %"class.Luau::CodeGen::A64::AssemblyBuilderA64", ptr %3, i32 0, i32 11
  %7 = load ptr, ptr %6, align 8, !tbaa !40
  %8 = icmp eq ptr %5, %7
  br i1 %8, label %9, label %10

9:                                                ; preds = %1
  call void @_ZN4Luau7CodeGen3A6418AssemblyBuilderA646extendEv(ptr noundef nonnull align 8 dereferenceable(176) %3)
  br label %10

10:                                               ; preds = %9, %1
  ret void
}

; Function Attrs: mustprogress nounwind uwtable
define dso_local void @_ZN4Luau7CodeGen3A6418AssemblyBuilderA645placeEj(ptr noundef nonnull align 8 dereferenceable(176) %0, i32 noundef %1) #1 align 2 {
  %3 = alloca ptr, align 8
  %4 = alloca i32, align 4
  store ptr %0, ptr %3, align 8, !tbaa !4
  store i32 %1, ptr %4, align 4, !tbaa !11
  %5 = load ptr, ptr %3, align 8
  %6 = load i32, ptr %4, align 4, !tbaa !11
  %7 = getelementptr inbounds nuw %"class.Luau::CodeGen::A64::AssemblyBuilderA64", ptr %5, i32 0, i32 11
  %8 = load ptr, ptr %7, align 8, !tbaa !40
  %9 = getelementptr inbounds nuw i32, ptr %8, i32 1
  store ptr %9, ptr %7, align 8, !tbaa !40
  store i32 %6, ptr %8, align 4, !tbaa !11
  ret void
}

; Function Attrs: mustprogress uwtable
define dso_local void @_ZN4Luau7CodeGen3A6418AssemblyBuilderA647placeCSEPKcNS1_11RegisterA64ES5_S5_NS1_12ConditionA64Ehhi(ptr noundef nonnull align 8 dereferenceable(176) %0, ptr noundef %1, i8 %2, i8 %3, i8 %4, i32 noundef %5, i8 noundef zeroext %6, i8 noundef zeroext %7, i32 noundef %8) #0 align 2 {
  %10 = alloca %"struct.Luau::CodeGen::A64::RegisterA64", align 1
  %11 = alloca %"struct.Luau::CodeGen::A64::RegisterA64", align 1
  %12 = alloca %"struct.Luau::CodeGen::A64::RegisterA64", align 1
  %13 = alloca ptr, align 8
  %14 = alloca ptr, align 8
  %15 = alloca i32, align 4
  %16 = alloca i8, align 1
  %17 = alloca i8, align 1
  %18 = alloca i32, align 4
  %19 = alloca %"struct.Luau::CodeGen::A64::RegisterA64", align 1
  %20 = alloca %"struct.Luau::CodeGen::A64::RegisterA64", align 1
  %21 = alloca %"struct.Luau::CodeGen::A64::RegisterA64", align 1
  %22 = alloca i32, align 4
  %23 = getelementptr inbounds nuw %"struct.Luau::CodeGen::A64::RegisterA64", ptr %10, i32 0, i32 0
  store i8 %2, ptr %23, align 1
  %24 = getelementptr inbounds nuw %"struct.Luau::CodeGen::A64::RegisterA64", ptr %11, i32 0, i32 0
  store i8 %3, ptr %24, align 1
  %25 = getelementptr inbounds nuw %"struct.Luau::CodeGen::A64::RegisterA64", ptr %12, i32 0, i32 0
  store i8 %4, ptr %25, align 1
  store ptr %0, ptr %13, align 8, !tbaa !4
  store ptr %1, ptr %14, align 8, !tbaa !61
  store i32 %5, ptr %15, align 4, !tbaa !64
  store i8 %6, ptr %16, align 1, !tbaa !58
  store i8 %7, ptr %17, align 1, !tbaa !58
  store i32 %8, ptr %18, align 4, !tbaa !11
  %26 = load ptr, ptr %13, align 8
  %27 = getelementptr inbounds nuw %"class.Luau::CodeGen::A64::AssemblyBuilderA64", ptr %26, i32 0, i32 3
  %28 = load i8, ptr %27, align 8, !tbaa !15, !range !13, !noundef !14
  %29 = trunc i8 %28 to i1
  br i1 %29, label %30, label %39

30:                                               ; preds = %9
  %31 = load ptr, ptr %14, align 8, !tbaa !61
  call void @llvm.memcpy.p0.p0.i64(ptr align 1 %19, ptr align 1 %10, i64 1, i1 false), !tbaa.struct !57
  call void @llvm.memcpy.p0.p0.i64(ptr align 1 %20, ptr align 1 %11, i64 1, i1 false), !tbaa.struct !57
  call void @llvm.memcpy.p0.p0.i64(ptr align 1 %21, ptr align 1 %12, i64 1, i1 false), !tbaa.struct !57
  %32 = load i32, ptr %15, align 4, !tbaa !64
  %33 = getelementptr inbounds nuw %"struct.Luau::CodeGen::A64::RegisterA64", ptr %19, i32 0, i32 0
  %34 = load i8, ptr %33, align 1
  %35 = getelementptr inbounds nuw %"struct.Luau::CodeGen::A64::RegisterA64", ptr %20, i32 0, i32 0
  %36 = load i8, ptr %35, align 1
  %37 = getelementptr inbounds nuw %"struct.Luau::CodeGen::A64::RegisterA64", ptr %21, i32 0, i32 0
  %38 = load i8, ptr %37, align 1
  call void @_ZN4Luau7CodeGen3A6418AssemblyBuilderA643logEPKcNS1_11RegisterA64ES5_S5_NS1_12ConditionA64E(ptr noundef nonnull align 8 dereferenceable(176) %26, ptr noundef %31, i8 %34, i8 %36, i8 %38, i32 noundef %32)
  br label %39

39:                                               ; preds = %30, %9
  call void @llvm.lifetime.start.p0(i64 4, ptr %22) #18
  %40 = load i8, ptr %10, align 1
  %41 = and i8 %40, 7
  %42 = icmp eq i8 %41, 2
  %43 = select i1 %42, i32 -2147483648, i32 0
  store i32 %43, ptr %22, align 4, !tbaa !11
  %44 = load i8, ptr %10, align 1
  %45 = lshr i8 %44, 3
  %46 = zext i8 %45 to i32
  %47 = load i8, ptr %11, align 1
  %48 = lshr i8 %47, 3
  %49 = zext i8 %48 to i32
  %50 = shl i32 %49, 5
  %51 = or i32 %46, %50
  %52 = load i8, ptr %17, align 1, !tbaa !58
  %53 = zext i8 %52 to i32
  %54 = shl i32 %53, 10
  %55 = or i32 %51, %54
  %56 = load i32, ptr %15, align 4, !tbaa !64
  %57 = sext i32 %56 to i64
  %58 = getelementptr inbounds [15 x i8], ptr @_ZN4Luau7CodeGen3A64L16codeForConditionE, i64 0, i64 %57
  %59 = load i8, ptr %58, align 1, !tbaa !58
  %60 = zext i8 %59 to i32
  %61 = load i32, ptr %18, align 4, !tbaa !11
  %62 = xor i32 %60, %61
  %63 = shl i32 %62, 12
  %64 = or i32 %55, %63
  %65 = load i8, ptr %12, align 1
  %66 = lshr i8 %65, 3
  %67 = zext i8 %66 to i32
  %68 = shl i32 %67, 16
  %69 = or i32 %64, %68
  %70 = load i8, ptr %16, align 1, !tbaa !58
  %71 = zext i8 %70 to i32
  %72 = shl i32 %71, 21
  %73 = or i32 %69, %72
  %74 = load i32, ptr %22, align 4, !tbaa !11
  %75 = or i32 %73, %74
  call void @_ZN4Luau7CodeGen3A6418AssemblyBuilderA645placeEj(ptr noundef nonnull align 8 dereferenceable(176) %26, i32 noundef %75)
  call void @_ZN4Luau7CodeGen3A6418AssemblyBuilderA646commitEv(ptr noundef nonnull align 8 dereferenceable(176) %26)
  call void @llvm.lifetime.end.p0(i64 4, ptr %22) #18
  ret void
}

; Function Attrs: mustprogress uwtable
define dso_local void @_ZN4Luau7CodeGen3A6418AssemblyBuilderA645fcselENS1_11RegisterA64ES3_S3_NS1_12ConditionA64E(ptr noundef nonnull align 8 dereferenceable(176) %0, i8 %1, i8 %2, i8 %3, i32 noundef %4) #0 align 2 {
  %6 = alloca %"struct.Luau::CodeGen::A64::RegisterA64", align 1
  %7 = alloca %"struct.Luau::CodeGen::A64::RegisterA64", align 1
  %8 = alloca %"struct.Luau::CodeGen::A64::RegisterA64", align 1
  %9 = alloca ptr, align 8
  %10 = alloca i32, align 4
  %11 = alloca %"struct.Luau::CodeGen::A64::RegisterA64", align 1
  %12 = alloca %"struct.Luau::CodeGen::A64::RegisterA64", align 1
  %13 = alloca %"struct.Luau::CodeGen::A64::RegisterA64", align 1
  %14 = getelementptr inbounds nuw %"struct.Luau::CodeGen::A64::RegisterA64", ptr %6, i32 0, i32 0
  store i8 %1, ptr %14, align 1
  %15 = getelementptr inbounds nuw %"struct.Luau::CodeGen::A64::RegisterA64", ptr %7, i32 0, i32 0
  store i8 %2, ptr %15, align 1
  %16 = getelementptr inbounds nuw %"struct.Luau::CodeGen::A64::RegisterA64", ptr %8, i32 0, i32 0
  store i8 %3, ptr %16, align 1
  store ptr %0, ptr %9, align 8, !tbaa !4
  store i32 %4, ptr %10, align 4, !tbaa !64
  %17 = load ptr, ptr %9, align 8
  call void @llvm.memcpy.p0.p0.i64(ptr align 1 %11, ptr align 1 %6, i64 1, i1 false), !tbaa.struct !57
  call void @llvm.memcpy.p0.p0.i64(ptr align 1 %12, ptr align 1 %7, i64 1, i1 false), !tbaa.struct !57
  call void @llvm.memcpy.p0.p0.i64(ptr align 1 %13, ptr align 1 %8, i64 1, i1 false), !tbaa.struct !57
  %18 = load i32, ptr %10, align 4, !tbaa !64
  %19 = getelementptr inbounds nuw %"struct.Luau::CodeGen::A64::RegisterA64", ptr %11, i32 0, i32 0
  %20 = load i8, ptr %19, align 1
  %21 = getelementptr inbounds nuw %"struct.Luau::CodeGen::A64::RegisterA64", ptr %12, i32 0, i32 0
  %22 = load i8, ptr %21, align 1
  %23 = getelementptr inbounds nuw %"struct.Luau::CodeGen::A64::RegisterA64", ptr %13, i32 0, i32 0
  %24 = load i8, ptr %23, align 1
  call void @_ZN4Luau7CodeGen3A6418AssemblyBuilderA647placeCSEPKcNS1_11RegisterA64ES5_S5_NS1_12ConditionA64Ehhi(ptr noundef nonnull align 8 dereferenceable(176) %17, ptr noundef @.str.76, i8 %20, i8 %22, i8 %24, i32 noundef %18, i8 noundef zeroext -13, i8 noundef zeroext 3, i32 noundef 0)
  ret void
}