; Function Attrs: mustprogress uwtable
define dso_local void @_ZN4Luau7CodeGen3A6418AssemblyBuilderA645fcselENS1_11RegisterA64ES3_S3_NS1_12ConditionA64E(ptr noundef nonnull align 8 dereferenceable(176) %0, i8 %1, i8 %2, i8 %3, i32 noundef %4) local_unnamed_addr #0 align 2 {
  %6 = getelementptr inbounds nuw i8, ptr %0, i64 80
  %7 = load i8, ptr %6, align 8, !tbaa !14, !range !46, !noundef !47
  %8 = trunc nuw i8 %7 to i1
  br i1 %8, label %9, label %10

9:                                                ; preds = %5
  tail call void @_ZN4Luau7CodeGen3A6418AssemblyBuilderA643logEPKcNS1_11RegisterA64ES5_S5_NS1_12ConditionA64E(ptr noundef nonnull align 8 dereferenceable(176) %0, ptr noundef nonnull @.str.76, i8 %1, i8 %2, i8 %3, i32 noundef %4)
  br label %10

10:                                               ; preds = %9, %5
  %11 = and i8 %1, 7
  %12 = icmp eq i8 %11, 2
  %13 = select i1 %12, i32 -2147483648, i32 0
  %14 = lshr i8 %1, 3
  %15 = zext nneg i8 %14 to i32
  %16 = lshr i8 %2, 3
  %17 = zext nneg i8 %16 to i32
  %18 = shl nuw nsw i32 %17, 5
  %19 = or disjoint i32 %18, %15
  %20 = or disjoint i32 %19, 3072
  %21 = sext i32 %4 to i64
  %22 = getelementptr inbounds [15 x i8], ptr @_ZN4Luau7CodeGen3A64L16codeForConditionE, i64 0, i64 %21
  %23 = load i8, ptr %22, align 1, !tbaa !13
  %24 = zext i8 %23 to i32
  %25 = shl nuw nsw i32 %24, 12
  %26 = lshr i8 %3, 3
  %27 = zext nneg i8 %26 to i32
  %28 = shl nuw nsw i32 %27, 16
  %29 = or disjoint i32 %28, %13
  %30 = or disjoint i32 %29, 509607936
  %31 = or disjoint i32 %25, %20
  %32 = or i32 %31, %30
  %33 = getelementptr inbounds nuw i8, ptr %0, i64 160
  %34 = load ptr, ptr %33, align 8, !tbaa !39
  %35 = getelementptr inbounds nuw i8, ptr %34, i64 4
  store ptr %35, ptr %33, align 8, !tbaa !39
  store i32 %32, ptr %34, align 4, !tbaa !48
  %36 = getelementptr inbounds nuw i8, ptr %0, i64 168
  %37 = load ptr, ptr %36, align 8, !tbaa !40
  %38 = icmp eq ptr %37, %35
  br i1 %38, label %39, label %_ZN4Luau7CodeGen3A6418AssemblyBuilderA647placeCSEPKcNS1_11RegisterA64ES5_S5_NS1_12ConditionA64Ehhi.exit

39:                                               ; preds = %10
  tail call void @_ZN4Luau7CodeGen3A6418AssemblyBuilderA646extendEv(ptr noundef nonnull align 8 dereferenceable(176) %0)
  br label %_ZN4Luau7CodeGen3A6418AssemblyBuilderA647placeCSEPKcNS1_11RegisterA64ES5_S5_NS1_12ConditionA64Ehhi.exit

_ZN4Luau7CodeGen3A6418AssemblyBuilderA647placeCSEPKcNS1_11RegisterA64ES5_S5_NS1_12ConditionA64Ehhi.exit: ; preds = %10, %39
  ret void
}